target datalayout = "e-m:e-p270:32:32-p271:32:32-p272:64:64-i64:64-i128:128-f80:128-n8:16:32:64-S128"
target triple = "x86_64-pc-linux-gnu"

%struct.ClassWithEigenMember = type { %"class.Eigen::Matrix.1451" }
%"class.Eigen::Matrix.1451" = type { %"class.Eigen::PlainObjectBase.1452" }
%"class.Eigen::PlainObjectBase.1452" = type { %"class.Eigen::DenseStorage.1459" }
%"class.Eigen::DenseStorage.1459" = type { ptr, i64, i64 }

; Function Attrs: mustprogress nounwind optsize uwtable
define linkonce_odr hidden void @_ZN5Eigen9DenseBaseINS_6MatrixIdLin1ELin1ELi0ELin1ELin1EEEEC2Ev(ptr noundef nonnull align 1 dereferenceable(1) %0) unnamed_addr #1 comdat align 2 {
  %2 = alloca ptr, align 8
  store ptr %0, ptr %2, align 8, !tbaa !2917
  ret void
}

; Function Attrs: mustprogress nounwind optsize uwtable
define linkonce_odr hidden void @_ZN5Eigen12DenseStorageIdLin1ELin1ELin1ELi0EEC2EOS1_(ptr noundef nonnull align 8 dereferenceable(24) %0, ptr noundef nonnull align 8 dereferenceable(24) %1) unnamed_addr #1 comdat align 2 {
  %3 = alloca ptr, align 8
  %4 = alloca ptr, align 8
  store ptr %0, ptr %3, align 8, !tbaa !2911
  store ptr %1, ptr %4, align 8, !tbaa !2911
  %5 = load ptr, ptr %3, align 8
  %6 = getelementptr inbounds nuw %"class.Eigen::DenseStorage.1459", ptr %5, i32 0, i32 0
  %7 = load ptr, ptr %4, align 8, !tbaa !2911
  %8 = getelementptr inbounds nuw %"class.Eigen::DenseStorage.1459", ptr %7, i32 0, i32 0
  %9 = load ptr, ptr %8, align 8, !tbaa !2787
  store ptr %9, ptr %6, align 8, !tbaa !2916
  %10 = getelementptr inbounds nuw %"class.Eigen::DenseStorage.1459", ptr %5, i32 0, i32 1
  %11 = load ptr, ptr %4, align 8, !tbaa !2911
  %12 = getelementptr inbounds nuw %"class.Eigen::DenseStorage.1459", ptr %11, i32 0, i32 1
  %13 = load i64, ptr %12, align 8, !tbaa !44
  store i64 %13, ptr %10, align 8, !tbaa !2913
  %14 = getelementptr inbounds nuw %"class.Eigen::DenseStorage.1459", ptr %5, i32 0, i32 2
  %15 = load ptr, ptr %4, align 8, !tbaa !2911
  %16 = getelementptr inbounds nuw %"class.Eigen::DenseStorage.1459", ptr %15, i32 0, i32 2
  %17 = load i64, ptr %16, align 8, !tbaa !44
  store i64 %17, ptr %14, align 8, !tbaa !2915
  %18 = load ptr, ptr %4, align 8, !tbaa !2911
  %19 = getelementptr inbounds nuw %"class.Eigen::DenseStorage.1459", ptr %18, i32 0, i32 0
  store ptr null, ptr %19, align 8, !tbaa !2916
  %20 = load ptr, ptr %4, align 8, !tbaa !2911
  %21 = getelementptr inbounds nuw %"class.Eigen::DenseStorage.1459", ptr %20, i32 0, i32 1
  store i64 0, ptr %21, align 8, !tbaa !2913
  %22 = load ptr, ptr %4, align 8, !tbaa !2911
  %23 = getelementptr inbounds nuw %"class.Eigen::DenseStorage.1459", ptr %22, i32 0, i32 2
  store i64 0, ptr %23, align 8, !tbaa !2915
  ret void
}

; Function Attrs: mustprogress optsize uwtable
define linkonce_odr hidden void @_ZN5Eigen10MatrixBaseINS_6MatrixIdLin1ELin1ELi0ELin1ELin1EEEEC2Ev(ptr noundef nonnull align 1 dereferenceable(1) %0) unnamed_addr #3 comdat align 2 {
  %2 = alloca ptr, align 8
  store ptr %0, ptr %2, align 8, !tbaa !2909
  %3 = load ptr, ptr %2, align 8
  call void @_ZN5Eigen9DenseBaseINS_6MatrixIdLin1ELin1ELi0ELin1ELin1EEEEC2Ev(ptr noundef nonnull align 1 dereferenceable(1) %3) #24
  ret void
}

; Function Attrs: noinline noreturn nounwind optsize uwtable
define linkonce_odr hidden void @__clang_call_terminate(ptr noundef %0) #9 comdat {
  %2 = call ptr @__cxa_begin_catch(ptr %0) #25
  call void @_ZSt9terminatev() #27
  unreachable
}

; Function Attrs: inlinehint mustprogress nounwind optsize uwtable
define linkonce_odr hidden void @_ZN5Eigen15PlainObjectBaseINS_6MatrixIdLin1ELin1ELi0ELin1ELin1EEEE22_check_template_paramsEv() #11 comdat align 2 {
  ret void
}

; Function Attrs: mustprogress nounwind optsize uwtable
define linkonce_odr hidden void @_ZN5Eigen15PlainObjectBaseINS_6MatrixIdLin1ELin1ELi0ELin1ELin1EEEEC2EOS3_(ptr noundef nonnull align 8 dereferenceable(24) %0, ptr noundef nonnull align 8 dereferenceable(24) %1) unnamed_addr #1 comdat align 2 personality ptr @__gxx_personality_v0 {
  %3 = alloca ptr, align 8
  %4 = alloca ptr, align 8
  store ptr %0, ptr %3, align 8, !tbaa !2907
  store ptr %1, ptr %4, align 8, !tbaa !2907
  %5 = load ptr, ptr %3, align 8
  invoke void @_ZN5Eigen10MatrixBaseINS_6MatrixIdLin1ELin1ELi0ELin1ELin1EEEEC2Ev(ptr noundef nonnull align 1 dereferenceable(1) %5) #24
          to label %6 unwind label %10

6:                                                ; preds = %2
  %7 = getelementptr inbounds nuw %"class.Eigen::PlainObjectBase.1452", ptr %5, i32 0, i32 0
  %8 = load ptr, ptr %4, align 8, !tbaa !2907
  %9 = getelementptr inbounds nuw %"class.Eigen::PlainObjectBase.1452", ptr %8, i32 0, i32 0
  call void @_ZN5Eigen12DenseStorageIdLin1ELin1ELin1ELi0EEC2EOS1_(ptr noundef nonnull align 8 dereferenceable(24) %7, ptr noundef nonnull align 8 dereferenceable(24) %9) #26
  ret void

10:                                               ; preds = %2
  %11 = landingpad { ptr, i32 }
          catch ptr null
  %12 = extractvalue { ptr, i32 } %11, 0
  call void @__clang_call_terminate(ptr %12) #27
  unreachable
}

; Function Attrs: inlinehint mustprogress nounwind optsize uwtable
define linkonce_odr hidden void @_ZN5Eigen6MatrixIdLin1ELin1ELi0ELin1ELin1EEC2EOS1_(ptr noundef nonnull align 8 dereferenceable(24) %0, ptr noundef nonnull align 8 dereferenceable(24) %1) unnamed_addr #11 comdat align 2 personality ptr @__gxx_personality_v0 {
  %3 = alloca ptr, align 8
  %4 = alloca ptr, align 8
  store ptr %0, ptr %3, align 8, !tbaa !2905
  store ptr %1, ptr %4, align 8, !tbaa !2905
  %5 = load ptr, ptr %3, align 8
  %6 = load ptr, ptr %4, align 8, !tbaa !2905
  call void @_ZN5Eigen15PlainObjectBaseINS_6MatrixIdLin1ELin1ELi0ELin1ELin1EEEEC2EOS3_(ptr noundef nonnull align 8 dereferenceable(24) %5, ptr noundef nonnull align 8 dereferenceable(24) %6) #26
  invoke void @_ZN5Eigen15PlainObjectBaseINS_6MatrixIdLin1ELin1ELi0ELin1ELin1EEEE22_check_template_paramsEv() #24
          to label %7 unwind label %8

7:                                                ; preds = %2
  ret void

8:                                                ; preds = %2
  %9 = landingpad { ptr, i32 }
          catch ptr null
  %10 = extractvalue { ptr, i32 } %9, 0
  call void @__clang_call_terminate(ptr %10) #27
  unreachable
}

; Function Attrs: inlinehint mustprogress nounwind optsize uwtable
define internal void @_ZZL28nanobind_init_test_eigen_extRN8nanobind7module_EEN20ClassWithEigenMemberC2EOS2_(ptr noundef nonnull align 8 dereferenceable(24) %0, ptr noundef nonnull align 8 dereferenceable(24) %1) unnamed_addr #11 align 2 {
  %3 = alloca ptr, align 8
  %4 = alloca ptr, align 8
  store ptr %0, ptr %3, align 8, !tbaa !2903
  store ptr %1, ptr %4, align 8, !tbaa !2903
  %5 = load ptr, ptr %3, align 8
  %6 = getelementptr inbounds nuw %struct.ClassWithEigenMember, ptr %5, i32 0, i32 0
  %7 = load ptr, ptr %4, align 8, !tbaa !2903
  %8 = getelementptr inbounds nuw %struct.ClassWithEigenMember, ptr %7, i32 0, i32 0
  call void @_ZN5Eigen6MatrixIdLin1ELin1ELi0ELin1ELin1EEC2EOS1_(ptr noundef nonnull align 8 dereferenceable(24) %6, ptr noundef nonnull align 8 dereferenceable(24) %8) #26
  ret void
}

; Function Attrs: mustprogress nounwind optsize uwtable
define internal void @_ZN8nanobind6detail9wrap_moveIZL28nanobind_init_test_eigen_extRNS_7module_EE20ClassWithEigenMemberEEvPvS5_(ptr noundef %0, ptr noundef %1) #1 {
  %3 = alloca ptr, align 8
  %4 = alloca ptr, align 8
  store ptr %0, ptr %3, align 8, !tbaa !41
  store ptr %1, ptr %4, align 8, !tbaa !41
  %5 = load ptr, ptr %3, align 8, !tbaa !41
  %6 = load ptr, ptr %4, align 8, !tbaa !41
  call void @_ZZL28nanobind_init_test_eigen_extRN8nanobind7module_EEN20ClassWithEigenMemberC2EOS2_(ptr noundef nonnull align 8 dereferenceable(24) %5, ptr noundef nonnull align 8 dereferenceable(24) %6) #26
  ret void
}