; Function Attrs: mustprogress nofree norecurse nosync nounwind optsize willreturn memory(argmem: readwrite) uwtable
define internal void @_ZN8nanobind6detail9wrap_moveIZL28nanobind_init_test_eigen_extRNS_7module_EE20ClassWithEigenMemberEEvPvS5_(ptr noundef writeonly captures(none) initializes((0, 24)) %0, ptr noundef captures(none) %1) #25 personality ptr @__gxx_personality_v0 {
  %3 = load ptr, ptr %1, align 8, !tbaa !968
  store ptr %3, ptr %0, align 8, !tbaa !970
  %4 = getelementptr inbounds nuw i8, ptr %0, i64 8
  %5 = getelementptr inbounds nuw i8, ptr %1, i64 8
  %6 = load i64, ptr %5, align 8, !tbaa !58
  store i64 %6, ptr %4, align 8, !tbaa !972
  %7 = getelementptr inbounds nuw i8, ptr %0, i64 16
  %8 = getelementptr inbounds nuw i8, ptr %1, i64 16
  %9 = load i64, ptr %8, align 8, !tbaa !58
  store i64 %9, ptr %7, align 8, !tbaa !973
  tail call void @llvm.memset.p0.i64(ptr noundef nonnull align 8 dereferenceable(24) %1, i8 0, i64 24, i1 false)
  ret void
}